target datalayout = "e-m:e-p270:32:32-p271:32:32-p272:64:64-i64:64-i128:128-f80:128-n8:16:32:64-S128"
target triple = "x86_64-pc-linux-gnu"

%struct.jpeg_compress_struct = type { ptr, ptr, ptr, ptr, i32, i32, ptr, i32, i32, i32, i32, double, i32, i32, i32, ptr, [4 x ptr], [4 x ptr], [4 x ptr], [16 x i8], [16 x i8], [16 x i8], i32, ptr, i32, i32, i32, i32, i32, i32, i32, i32, i32, i8, i8, i8, i16, i16, i32, i32, i32, i32, i32, i32, i32, [4 x ptr], i32, i32, i32, [10 x i32], i32, i32, i32, i32, ptr, ptr, ptr, ptr, ptr, ptr, ptr, ptr, ptr, ptr, i32 }
%struct.jpeg_error_mgr = type { ptr, ptr, ptr, ptr, ptr, i32, %union.anon, i32, i64, ptr, i32, ptr, i32, i32 }
%union.anon = type { [8 x i32], [48 x i8] }
%struct._tga_source_struct = type { %struct.cjpeg_source_struct, ptr, ptr, ptr, i32, ptr, [4 x i8], i32, i32, i32, i32, ptr }
%struct.cjpeg_source_struct = type { ptr, ptr, ptr, ptr, ptr, ptr, ptr, i32, i32 }

; Function Attrs: nounwind uwtable
define internal i32 @read_byte(ptr noundef %0) #0 {
  %2 = alloca ptr, align 8
  %3 = alloca ptr, align 8
  %4 = alloca i32, align 4
  store ptr %0, ptr %2, align 8
  %5 = load ptr, ptr %2, align 8
  %6 = getelementptr inbounds %struct._tga_source_struct, ptr %5, i32 0, i32 0
  %7 = getelementptr inbounds %struct.cjpeg_source_struct, ptr %6, i32 0, i32 3
  %8 = load ptr, ptr %7, align 8
  store ptr %8, ptr %3, align 8
  %9 = load ptr, ptr %3, align 8
  %10 = call i32 @getc(ptr noundef %9)
  store i32 %10, ptr %4, align 4
  %11 = icmp eq i32 %10, -1
  br i1 %11, label %12, label %29

12:                                               ; preds = %1
  %13 = load ptr, ptr %2, align 8
  %14 = getelementptr inbounds %struct._tga_source_struct, ptr %13, i32 0, i32 1
  %15 = load ptr, ptr %14, align 8
  %16 = getelementptr inbounds %struct.jpeg_compress_struct, ptr %15, i32 0, i32 0
  %17 = load ptr, ptr %16, align 8
  %18 = getelementptr inbounds %struct.jpeg_error_mgr, ptr %17, i32 0, i32 5
  store i32 43, ptr %18, align 8
  %19 = load ptr, ptr %2, align 8
  %20 = getelementptr inbounds %struct._tga_source_struct, ptr %19, i32 0, i32 1
  %21 = load ptr, ptr %20, align 8
  %22 = getelementptr inbounds %struct.jpeg_compress_struct, ptr %21, i32 0, i32 0
  %23 = load ptr, ptr %22, align 8
  %24 = getelementptr inbounds %struct.jpeg_error_mgr, ptr %23, i32 0, i32 0
  %25 = load ptr, ptr %24, align 8
  %26 = load ptr, ptr %2, align 8
  %27 = getelementptr inbounds %struct._tga_source_struct, ptr %26, i32 0, i32 1
  %28 = load ptr, ptr %27, align 8
  call void %25(ptr noundef %28)
  br label %29

29:                                               ; preds = %12, %1
  %30 = load i32, ptr %4, align 4
  ret i32 %30
}

; Function Attrs: nounwind uwtable
define internal void @read_rle_pixel(ptr noundef %0) #0 {
  %2 = alloca ptr, align 8
  %3 = alloca i32, align 4
  store ptr %0, ptr %2, align 8
  %4 = load ptr, ptr %2, align 8
  %5 = getelementptr inbounds %struct._tga_source_struct, ptr %4, i32 0, i32 10
  %6 = load i32, ptr %5, align 8
  %7 = icmp sgt i32 %6, 0
  br i1 %7, label %8, label %13

8:                                                ; preds = %1
  %9 = load ptr, ptr %2, align 8
  %10 = getelementptr inbounds %struct._tga_source_struct, ptr %9, i32 0, i32 10
  %11 = load i32, ptr %10, align 8
  %12 = add nsw i32 %11, -1
  store i32 %12, ptr %10, align 8
  br label %57

13:                                               ; preds = %1
  %14 = load ptr, ptr %2, align 8
  %15 = getelementptr inbounds %struct._tga_source_struct, ptr %14, i32 0, i32 9
  %16 = load i32, ptr %15, align 4
  %17 = add nsw i32 %16, -1
  store i32 %17, ptr %15, align 4
  %18 = icmp slt i32 %17, 0
  br i1 %18, label %19, label %38

19:                                               ; preds = %13
  %20 = load ptr, ptr %2, align 8
  %21 = call i32 @read_byte(ptr noundef %20)
  store i32 %21, ptr %3, align 4
  %22 = load i32, ptr %3, align 4
  %23 = and i32 %22, 128
  %24 = icmp ne i32 %23, 0
  br i1 %24, label %25, label %32

25:                                               ; preds = %19
  %26 = load i32, ptr %3, align 4
  %27 = and i32 %26, 127
  %28 = load ptr, ptr %2, align 8
  %29 = getelementptr inbounds %struct._tga_source_struct, ptr %28, i32 0, i32 10
  store i32 %27, ptr %29, align 8
  %30 = load ptr, ptr %2, align 8
  %31 = getelementptr inbounds %struct._tga_source_struct, ptr %30, i32 0, i32 9
  store i32 0, ptr %31, align 4
  br label %37

32:                                               ; preds = %19
  %33 = load i32, ptr %3, align 4
  %34 = and i32 %33, 127
  %35 = load ptr, ptr %2, align 8
  %36 = getelementptr inbounds %struct._tga_source_struct, ptr %35, i32 0, i32 9
  store i32 %34, ptr %36, align 4
  br label %37

37:                                               ; preds = %32, %25
  br label %38

38:                                               ; preds = %37, %13
  store i32 0, ptr %3, align 4
  br label %39

39:                                               ; preds = %54, %38
  %40 = load i32, ptr %3, align 4
  %41 = load ptr, ptr %2, align 8
  %42 = getelementptr inbounds %struct._tga_source_struct, ptr %41, i32 0, i32 7
  %43 = load i32, ptr %42, align 4
  %44 = icmp slt i32 %40, %43
  br i1 %44, label %45, label %57

45:                                               ; preds = %39
  %46 = load ptr, ptr %2, align 8
  %47 = call i32 @read_byte(ptr noundef %46)
  %48 = trunc i32 %47 to i8
  %49 = load ptr, ptr %2, align 8
  %50 = getelementptr inbounds %struct._tga_source_struct, ptr %49, i32 0, i32 6
  %51 = load i32, ptr %3, align 4
  %52 = sext i32 %51 to i64
  %53 = getelementptr inbounds [4 x i8], ptr %50, i64 0, i64 %52
  store i8 %48, ptr %53, align 1
  br label %54

54:                                               ; preds = %45
  %55 = load i32, ptr %3, align 4
  %56 = add nsw i32 %55, 1
  store i32 %56, ptr %3, align 4
  br label %39, !llvm.loop !7

57:                                               ; preds = %39, %8
  ret void
}