; Function Attrs: nounwind uwtable
define internal void @read_rle_pixel(ptr nocapture noundef %0) #0 {
  %2 = getelementptr inbounds i8, ptr %0, i64 120
  %3 = load i32, ptr %2, align 8
  %4 = icmp sgt i32 %3, 0
  br i1 %4, label %5, label %7

5:                                                ; preds = %1
  %6 = add nsw i32 %3, -1
  store i32 %6, ptr %2, align 8
  br label %.loopexit

7:                                                ; preds = %1
  %8 = getelementptr inbounds i8, ptr %0, i64 116
  %9 = load i32, ptr %8, align 4
  %10 = add nsw i32 %9, -1
  store i32 %10, ptr %8, align 4
  %11 = icmp slt i32 %9, 1
  br i1 %11, label %12, label %29

12:                                               ; preds = %7
  %13 = getelementptr inbounds i8, ptr %0, i64 24
  %14 = load ptr, ptr %13, align 8
  %15 = tail call i32 @getc(ptr noundef %14)
  %16 = icmp eq i32 %15, -1
  br i1 %16, label %read_byte.exit.thread, label %read_byte.exit

read_byte.exit.thread:                            ; preds = %12
  %17 = getelementptr inbounds i8, ptr %0, i64 64
  %18 = load ptr, ptr %17, align 8
  %19 = load ptr, ptr %18, align 8
  %20 = getelementptr inbounds i8, ptr %19, i64 40
  store i32 43, ptr %20, align 8
  %21 = load ptr, ptr %17, align 8
  %22 = load ptr, ptr %21, align 8
  %23 = load ptr, ptr %22, align 8
  tail call void %23(ptr noundef nonnull %21) #3
  br label %25

read_byte.exit:                                   ; preds = %12
  %24 = and i32 %15, 128
  %.not = icmp eq i32 %24, 0
  br i1 %.not, label %27, label %25

25:                                               ; preds = %read_byte.exit.thread, %read_byte.exit
  %26 = and i32 %15, 127
  store i32 %26, ptr %2, align 8
  br label %.sink.split

27:                                               ; preds = %read_byte.exit
  %28 = and i32 %15, 127
  br label %.sink.split

.sink.split:                                      ; preds = %27, %25
  %.sink = phi i32 [ 0, %25 ], [ %28, %27 ]
  store i32 %.sink, ptr %8, align 4
  br label %29

29:                                               ; preds = %.sink.split, %7
  %30 = getelementptr inbounds i8, ptr %0, i64 108
  %31 = load i32, ptr %30, align 4
  %32 = icmp sgt i32 %31, 0
  br i1 %32, label %.lr.ph, label %.loopexit

.lr.ph:                                           ; preds = %29
  %33 = getelementptr inbounds i8, ptr %0, i64 24
  %34 = getelementptr inbounds i8, ptr %0, i64 64
  %35 = getelementptr inbounds i8, ptr %0, i64 104
  br label %36

36:                                               ; preds = %.lr.ph, %read_byte.exit16
  %indvars.iv = phi i64 [ 0, %.lr.ph ], [ %indvars.iv.next, %read_byte.exit16 ]
  %37 = load ptr, ptr %33, align 8
  %38 = tail call i32 @getc(ptr noundef %37)
  %39 = icmp eq i32 %38, -1
  br i1 %39, label %40, label %read_byte.exit16

40:                                               ; preds = %36
  %41 = load ptr, ptr %34, align 8
  %42 = load ptr, ptr %41, align 8
  %43 = getelementptr inbounds i8, ptr %42, i64 40
  store i32 43, ptr %43, align 8
  %44 = load ptr, ptr %34, align 8
  %45 = load ptr, ptr %44, align 8
  %46 = load ptr, ptr %45, align 8
  tail call void %46(ptr noundef nonnull %44) #3
  br label %read_byte.exit16

read_byte.exit16:                                 ; preds = %36, %40
  %47 = trunc i32 %38 to i8
  %48 = getelementptr inbounds [4 x i8], ptr %35, i64 0, i64 %indvars.iv
  store i8 %47, ptr %48, align 1
  %indvars.iv.next = add nuw nsw i64 %indvars.iv, 1
  %49 = load i32, ptr %30, align 4
  %50 = sext i32 %49 to i64
  %51 = icmp slt i64 %indvars.iv.next, %50
  br i1 %51, label %36, label %.loopexit, !llvm.loop !8

.loopexit:                                        ; preds = %read_byte.exit16, %29, %5
  ret void
}